; Function Attrs: nounwind sspstrong uwtable
define hidden noundef i64 @rb_home_dir_of(i64 noundef %0, i64 noundef returned %1) local_unnamed_addr #0 {
  %3 = tail call i64 @rb_getpwdirnam_for_login(i64 noundef %0) #22
  %4 = icmp eq i64 %3, 4
  br i1 %4, label %5, label %7

5:                                                ; preds = %2
  %6 = load i64, ptr @rb_eArgError, align 8, !tbaa !12
  tail call void (i64, ptr, ...) @rb_raise(i64 noundef %6, ptr noundef nonnull @.str.2, i64 noundef %0) #24
  unreachable

7:                                                ; preds = %2
  %8 = inttoptr i64 %3 to ptr
  %9 = load i64, ptr %8, align 8, !tbaa !7, !noalias !93
  %10 = and i64 %9, 8192
  %.not.i.i = icmp eq i64 %10, 0
  %11 = getelementptr inbounds nuw i8, ptr %8, i64 24
  br i1 %.not.i.i, label %RSTRING_PTR.exit, label %12

12:                                               ; preds = %7
  %.sroa.2.0.copyload.i = load ptr, ptr %11, align 8
  br label %RSTRING_PTR.exit

RSTRING_PTR.exit:                                 ; preds = %7, %12
  %.sroa.2.0.i = phi ptr [ %.sroa.2.0.copyload.i, %12 ], [ %11, %7 ]
  %13 = tail call i64 @strlen(ptr noundef nonnull readonly dereferenceable(1) %.sroa.2.0.i) #23
  %14 = tail call i64 @rb_str_resize(i64 noundef %1, i64 noundef %13) #22
  %15 = inttoptr i64 %1 to ptr
  %16 = load i64, ptr %15, align 8, !tbaa !7, !noalias !96
  %17 = and i64 %16, 8192
  %.not.i.i.i = icmp eq i64 %17, 0
  %18 = getelementptr inbounds nuw i8, ptr %15, i64 24
  br i1 %.not.i.i.i, label %RSTRING_PTR.exit.i, label %19

19:                                               ; preds = %RSTRING_PTR.exit
  %.sroa.2.0.copyload.i.i = load ptr, ptr %18, align 8
  br label %RSTRING_PTR.exit.i

RSTRING_PTR.exit.i:                               ; preds = %19, %RSTRING_PTR.exit
  %.sroa.2.0.i.i = phi ptr [ %.sroa.2.0.copyload.i.i, %19 ], [ %18, %RSTRING_PTR.exit ]
  %.not.i.i6 = icmp eq i64 %13, 0
  br i1 %.not.i.i6, label %copy_home_path.exit, label %20

20:                                               ; preds = %RSTRING_PTR.exit.i
  tail call void @llvm.memcpy.p0.p0.i64(ptr noundef nonnull align 1 %.sroa.2.0.i.i, ptr noundef nonnull readonly align 1 %.sroa.2.0.i, i64 noundef range(i64 1, 0) %13, i1 noundef false) #22
  br label %copy_home_path.exit

copy_home_path.exit:                              ; preds = %RSTRING_PTR.exit.i, %20
  %21 = tail call i32 @rb_filesystem_encindex() #22
  %22 = tail call i64 @rb_enc_associate_index(i64 noundef %1, i32 noundef %21) #22
  ret i64 %1
}